target datalayout = "e-m:e-p270:32:32-p271:32:32-p272:64:64-i64:64-i128:128-f80:128-n8:16:32:64-S128"
target triple = "x86_64-pc-linux-gnu"

%struct.AVFormatContext = type { ptr, ptr, ptr, ptr, ptr, i32, i32, ptr, i32, ptr, i32, ptr, ptr, i64, i64, i64, i32, i32, i32, i64, i64, ptr, i32, i32, ptr, i32, i32, i32, i32, ptr, i64, i32, i32, %struct.AVIOInterruptCB, i32, i32, i32, i32, i64, i32, i32, i32, i32, i32, i32, i32, i32, i32, i32, i32, i32, i64, i32, i32, i32, i32, i32, ptr, ptr, ptr, ptr, i32, ptr, ptr, ptr, ptr, i32, ptr, ptr, i64, ptr, ptr, ptr, i64 }
%struct.AVIOInterruptCB = type { ptr, ptr }
%struct.AMVContext = type { i64, i64, i64, i32, i32, i32, i32, ptr, ptr, [2 x i64] }
%struct.AVPacket = type { ptr, i64, i64, ptr, i32, i32, i32, ptr, i32, i64, i64, ptr, ptr, %struct.AVRational }
%struct.AVRational = type { i32, i32 }

@.str.9 = private unnamed_addr constant [30 x i8] c"Assertion %s failed at %s:%d\0A\00", align 1
@.str.11 = private unnamed_addr constant [21 x i8] c"libavformat/amvenc.c\00", align 1
@.str.17 = private unnamed_addr constant [2 x i8] c"0\00", align 1
@.str.18 = private unnamed_addr constant [5 x i8] c"00dc\00", align 1
@.str.19 = private unnamed_addr constant [5 x i8] c"01wb\00", align 1
@.str.20 = private unnamed_addr constant [38 x i8] c"Invalid audio packet size (%d != %d)\0A\00", align 1

; Function Attrs: alwaysinline nounwind uwtable
define internal void @ffio_wfourcc(ptr noundef %0, ptr noundef %1) #4 {
  %3 = alloca ptr, align 8
  %4 = alloca ptr, align 8
  store ptr %0, ptr %3, align 8, !tbaa !29
  store ptr %1, ptr %4, align 8, !tbaa !78
  %5 = load ptr, ptr %3, align 8, !tbaa !29
  %6 = load ptr, ptr %4, align 8, !tbaa !78
  %7 = getelementptr inbounds i8, ptr %6, i64 0
  %8 = load i8, ptr %7, align 1, !tbaa !38
  %9 = zext i8 %8 to i32
  %10 = load ptr, ptr %4, align 8, !tbaa !78
  %11 = getelementptr inbounds i8, ptr %10, i64 1
  %12 = load i8, ptr %11, align 1, !tbaa !38
  %13 = zext i8 %12 to i32
  %14 = shl i32 %13, 8
  %15 = or i32 %9, %14
  %16 = load ptr, ptr %4, align 8, !tbaa !78
  %17 = getelementptr inbounds i8, ptr %16, i64 2
  %18 = load i8, ptr %17, align 1, !tbaa !38
  %19 = zext i8 %18 to i32
  %20 = shl i32 %19, 16
  %21 = or i32 %15, %20
  %22 = load ptr, ptr %4, align 8, !tbaa !78
  %23 = getelementptr inbounds i8, ptr %22, i64 3
  %24 = load i8, ptr %23, align 1, !tbaa !38
  %25 = zext i8 %24 to i32
  %26 = shl i32 %25, 24
  %27 = or i32 %21, %26
  call void @avio_wl32(ptr noundef %5, i32 noundef %27)
  ret void
}

; Function Attrs: nounwind uwtable
define internal i32 @amv_write_packet_internal(ptr noundef %0, ptr noundef %1) #0 {
  %3 = alloca ptr, align 8
  %4 = alloca ptr, align 8
  %5 = alloca ptr, align 8
  store ptr %0, ptr %3, align 8, !tbaa !4
  store ptr %1, ptr %4, align 8, !tbaa !54
  call void @llvm.lifetime.start.p0(i64 8, ptr %5) #8
  %6 = load ptr, ptr %3, align 8, !tbaa !4
  %7 = getelementptr inbounds nuw %struct.AVFormatContext, ptr %6, i32 0, i32 3
  %8 = load ptr, ptr %7, align 8, !tbaa !9
  store ptr %8, ptr %5, align 8, !tbaa !26
  %9 = load ptr, ptr %4, align 8, !tbaa !54
  %10 = getelementptr inbounds nuw %struct.AVPacket, ptr %9, i32 0, i32 5
  %11 = load i32, ptr %10, align 4, !tbaa !56
  %12 = icmp eq i32 %11, 0
  br i1 %12, label %13, label %17

13:                                               ; preds = %2
  %14 = load ptr, ptr %3, align 8, !tbaa !4
  %15 = getelementptr inbounds nuw %struct.AVFormatContext, ptr %14, i32 0, i32 4
  %16 = load ptr, ptr %15, align 8, !tbaa !28
  call void @ffio_wfourcc(ptr noundef %16, ptr noundef @.str.18)
  br label %31

17:                                               ; preds = %2
  %18 = load ptr, ptr %4, align 8, !tbaa !54
  %19 = getelementptr inbounds nuw %struct.AVPacket, ptr %18, i32 0, i32 5
  %20 = load i32, ptr %19, align 4, !tbaa !56
  %21 = icmp eq i32 %20, 1
  br i1 %21, label %22, label %26

22:                                               ; preds = %17
  %23 = load ptr, ptr %3, align 8, !tbaa !4
  %24 = getelementptr inbounds nuw %struct.AVFormatContext, ptr %23, i32 0, i32 4
  %25 = load ptr, ptr %24, align 8, !tbaa !28
  call void @ffio_wfourcc(ptr noundef %25, ptr noundef @.str.19)
  br label %30

26:                                               ; preds = %17
  br label %27

27:                                               ; preds = %26
  call void (ptr, i32, ptr, ...) @av_log(ptr noundef null, i32 noundef 0, ptr noundef @.str.9, ptr noundef @.str.17, ptr noundef @.str.11, i32 noundef 303)
  call void @abort() #10
  unreachable

28:                                               ; No predecessors!
  br label %29

29:                                               ; preds = %28
  br label %30

30:                                               ; preds = %29, %22
  br label %31

31:                                               ; preds = %30, %13
  %32 = load ptr, ptr %4, align 8, !tbaa !54
  %33 = getelementptr inbounds nuw %struct.AVPacket, ptr %32, i32 0, i32 5
  %34 = load i32, ptr %33, align 4, !tbaa !56
  %35 = icmp eq i32 %34, 1
  br i1 %35, label %36, label %52

36:                                               ; preds = %31
  %37 = load ptr, ptr %4, align 8, !tbaa !54
  %38 = getelementptr inbounds nuw %struct.AVPacket, ptr %37, i32 0, i32 4
  %39 = load i32, ptr %38, align 8, !tbaa !80
  %40 = load ptr, ptr %5, align 8, !tbaa !26
  %41 = getelementptr inbounds nuw %struct.AMVContext, ptr %40, i32 0, i32 6
  %42 = load i32, ptr %41, align 4, !tbaa !68
  %43 = icmp ne i32 %39, %42
  br i1 %43, label %44, label %52

44:                                               ; preds = %36
  %45 = load ptr, ptr %3, align 8, !tbaa !4
  %46 = load ptr, ptr %4, align 8, !tbaa !54
  %47 = getelementptr inbounds nuw %struct.AVPacket, ptr %46, i32 0, i32 4
  %48 = load i32, ptr %47, align 8, !tbaa !80
  %49 = load ptr, ptr %5, align 8, !tbaa !26
  %50 = getelementptr inbounds nuw %struct.AMVContext, ptr %49, i32 0, i32 6
  %51 = load i32, ptr %50, align 4, !tbaa !68
  call void (ptr, i32, ptr, ...) @av_log(ptr noundef %45, i32 noundef 24, ptr noundef @.str.20, i32 noundef %48, i32 noundef %51)
  br label %52

52:                                               ; preds = %44, %36, %31
  %53 = load ptr, ptr %3, align 8, !tbaa !4
  %54 = getelementptr inbounds nuw %struct.AVFormatContext, ptr %53, i32 0, i32 4
  %55 = load ptr, ptr %54, align 8, !tbaa !28
  %56 = load ptr, ptr %4, align 8, !tbaa !54
  %57 = getelementptr inbounds nuw %struct.AVPacket, ptr %56, i32 0, i32 4
  %58 = load i32, ptr %57, align 8, !tbaa !80
  call void @avio_wl32(ptr noundef %55, i32 noundef %58)
  %59 = load ptr, ptr %3, align 8, !tbaa !4
  %60 = getelementptr inbounds nuw %struct.AVFormatContext, ptr %59, i32 0, i32 4
  %61 = load ptr, ptr %60, align 8, !tbaa !28
  %62 = load ptr, ptr %4, align 8, !tbaa !54
  %63 = getelementptr inbounds nuw %struct.AVPacket, ptr %62, i32 0, i32 3
  %64 = load ptr, ptr %63, align 8, !tbaa !76
  %65 = load ptr, ptr %4, align 8, !tbaa !54
  %66 = getelementptr inbounds nuw %struct.AVPacket, ptr %65, i32 0, i32 4
  %67 = load i32, ptr %66, align 8, !tbaa !80
  call void @avio_write(ptr noundef %61, ptr noundef %64, i32 noundef %67)
  %68 = load ptr, ptr %4, align 8, !tbaa !54
  %69 = getelementptr inbounds nuw %struct.AVPacket, ptr %68, i32 0, i32 9
  %70 = load i64, ptr %69, align 8, !tbaa !77
  %71 = load ptr, ptr %5, align 8, !tbaa !26
  %72 = getelementptr inbounds nuw %struct.AMVContext, ptr %71, i32 0, i32 9
  %73 = load ptr, ptr %4, align 8, !tbaa !54
  %74 = getelementptr inbounds nuw %struct.AVPacket, ptr %73, i32 0, i32 5
  %75 = load i32, ptr %74, align 4, !tbaa !56
  %76 = sext i32 %75 to i64
  %77 = getelementptr inbounds [2 x i64], ptr %72, i64 0, i64 %76
  %78 = load i64, ptr %77, align 8, !tbaa !36
  %79 = add nsw i64 %78, %70
  store i64 %79, ptr %77, align 8, !tbaa !36
  %80 = load ptr, ptr %4, align 8, !tbaa !54
  %81 = getelementptr inbounds nuw %struct.AVPacket, ptr %80, i32 0, i32 5
  %82 = load i32, ptr %81, align 4, !tbaa !56
  %83 = load ptr, ptr %5, align 8, !tbaa !26
  %84 = getelementptr inbounds nuw %struct.AMVContext, ptr %83, i32 0, i32 3
  store i32 %82, ptr %84, align 8, !tbaa !58
  call void @llvm.lifetime.end.p0(i64 8, ptr %5) #8
  ret i32 0
}