; Function Attrs: nounwind uwtable
define internal fastcc void @amv_write_packet_internal(ptr noundef %0, ptr noundef readonly captures(none) %1) unnamed_addr #0 {
  %3 = getelementptr inbounds nuw i8, ptr %0, i64 24
  %4 = load ptr, ptr %3, align 8, !tbaa !4
  %5 = getelementptr inbounds nuw i8, ptr %1, i64 36
  %6 = load i32, ptr %5, align 4, !tbaa !51
  switch i32 %6, label %8 [
    i32 0, label %9
    i32 1, label %7
  ]

7:                                                ; preds = %2
  br label %9

8:                                                ; preds = %2
  tail call void (ptr, i32, ptr, ...) @av_log(ptr noundef null, i32 noundef 0, ptr noundef nonnull @.str.9, ptr noundef nonnull @.str.17, ptr noundef nonnull @.str.11, i32 noundef 303) #8
  tail call void @abort() #9
  unreachable

9:                                                ; preds = %2, %7
  %.sink23 = phi i32 [ 1651978544, %7 ], [ 1667510320, %2 ]
  %10 = getelementptr inbounds nuw i8, ptr %0, i64 32
  %11 = load ptr, ptr %10, align 8, !tbaa !24
  tail call void @avio_wl32(ptr noundef %11, i32 noundef %.sink23) #8
  %12 = load i32, ptr %5, align 4, !tbaa !51
  %13 = icmp eq i32 %12, 1
  br i1 %13, label %14, label %20

14:                                               ; preds = %9
  %15 = getelementptr inbounds nuw i8, ptr %1, i64 32
  %16 = load i32, ptr %15, align 8, !tbaa !70
  %17 = getelementptr inbounds nuw i8, ptr %4, i64 36
  %18 = load i32, ptr %17, align 4, !tbaa !61
  %.not = icmp eq i32 %16, %18
  br i1 %.not, label %20, label %19

19:                                               ; preds = %14
  tail call void (ptr, i32, ptr, ...) @av_log(ptr noundef nonnull %0, i32 noundef 24, ptr noundef nonnull @.str.20, i32 noundef %16, i32 noundef %18) #8
  br label %20

20:                                               ; preds = %19, %14, %9
  %21 = getelementptr inbounds nuw i8, ptr %0, i64 32
  %22 = load ptr, ptr %21, align 8, !tbaa !24
  %23 = getelementptr inbounds nuw i8, ptr %1, i64 32
  %24 = load i32, ptr %23, align 8, !tbaa !70
  tail call void @avio_wl32(ptr noundef %22, i32 noundef %24) #8
  %25 = load ptr, ptr %21, align 8, !tbaa !24
  %26 = getelementptr inbounds nuw i8, ptr %1, i64 24
  %27 = load ptr, ptr %26, align 8, !tbaa !68
  %28 = load i32, ptr %23, align 8, !tbaa !70
  tail call void @avio_write(ptr noundef %25, ptr noundef %27, i32 noundef %28) #8
  %29 = getelementptr inbounds nuw i8, ptr %1, i64 64
  %30 = load i64, ptr %29, align 8, !tbaa !69
  %31 = getelementptr inbounds nuw i8, ptr %4, i64 56
  %32 = load i32, ptr %5, align 4, !tbaa !51
  %33 = sext i32 %32 to i64
  %34 = getelementptr inbounds [2 x i64], ptr %31, i64 0, i64 %33
  %35 = load i64, ptr %34, align 8, !tbaa !57
  %36 = add nsw i64 %35, %30
  store i64 %36, ptr %34, align 8, !tbaa !57
  %37 = getelementptr inbounds nuw i8, ptr %4, i64 24
  store i32 %32, ptr %37, align 8, !tbaa !52
  ret void
}